target datalayout = "e-m:e-p270:32:32-p271:32:32-p272:64:64-i64:64-i128:128-f80:128-n8:16:32:64-S128"
target triple = "x86_64-pc-linux-gnu"

%struct.SDL_GPUDevice = type { ptr, ptr, ptr, ptr, ptr, ptr, ptr, ptr, ptr, ptr, ptr, ptr, ptr, ptr, ptr, ptr, ptr, ptr, ptr, ptr, ptr, ptr, ptr, ptr, ptr, ptr, ptr, ptr, ptr, ptr, ptr, ptr, ptr, ptr, ptr, ptr, ptr, ptr, ptr, ptr, ptr, ptr, ptr, ptr, ptr, ptr, ptr, ptr, ptr, ptr, ptr, ptr, ptr, ptr, ptr, ptr, ptr, ptr, ptr, ptr, ptr, ptr, ptr, ptr, ptr, ptr, ptr, ptr, ptr, ptr, ptr, ptr, ptr, ptr, ptr, ptr, ptr, ptr, ptr, ptr, ptr, ptr, ptr, ptr, ptr, i32, i8 }
%struct.CommandBufferCommonHeader = type { ptr, %struct.RenderPass, i8, %struct.Pass, i8, %struct.Pass, i8, i8, i8 }
%struct.RenderPass = type { ptr, i8, [4 x ptr], i32, ptr }
%struct.Pass = type { ptr, i8 }

@.str.4 = private unnamed_addr constant [26 x i8] c"Parameter '%s' is invalid\00", align 1
@.str.8 = private unnamed_addr constant [103 x i8] c"generated/home/dtcxzyw/WorkSpace/Projects/compilers/llvm-opt-benchmark/bench/sdl/SDL/src/gpu/SDL_gpu.c\00", align 1
@.str.225 = private unnamed_addr constant [12 x i8] c"render_pass\00", align 1
@SDL_DrawGPUPrimitives_REAL.sdl_assert_data = internal global { i8, [3 x i8], i32, ptr, ptr, i32, [4 x i8], ptr, ptr } { i8 0, [3 x i8] zeroinitializer, i32 0, ptr @.str.229, ptr null, i32 0, [4 x i8] zeroinitializer, ptr null, ptr null }, align 8
@__func__.SDL_DrawGPUPrimitives_REAL = private unnamed_addr constant [27 x i8] c"SDL_DrawGPUPrimitives_REAL\00", align 1
@SDL_DrawGPUPrimitives_REAL.sdl_assert_data.255 = internal global { i8, [3 x i8], i32, ptr, ptr, i32, [4 x i8], ptr, ptr } { i8 0, [3 x i8] zeroinitializer, i32 0, ptr @.str.254, ptr null, i32 0, [4 x i8] zeroinitializer, ptr null, ptr null }, align 8

; Function Attrs: nounwind uwtable
define hidden void @SDL_DrawGPUPrimitives_REAL(ptr noundef %0, i32 noundef %1, i32 noundef %2, i32 noundef %3, i32 noundef %4) #0 {
  %6 = alloca ptr, align 8
  %7 = alloca i32, align 4
  %8 = alloca i32, align 4
  %9 = alloca i32, align 4
  %10 = alloca i32, align 4
  %11 = alloca i32, align 4
  %12 = alloca i32, align 4
  %13 = alloca i32, align 4
  store ptr %0, ptr %6, align 8
  store i32 %1, ptr %7, align 4
  store i32 %2, ptr %8, align 4
  store i32 %3, ptr %9, align 4
  store i32 %4, ptr %10, align 4
  %14 = load ptr, ptr %6, align 8
  %15 = icmp eq ptr %14, null
  br i1 %15, label %16, label %18

16:                                               ; preds = %5
  %17 = call zeroext i1 (ptr, ...) @SDL_SetError_REAL(ptr noundef @.str.4, ptr noundef @.str.225)
  br label %89

18:                                               ; preds = %5
  %19 = load ptr, ptr %6, align 8
  %20 = getelementptr inbounds nuw %struct.RenderPass, ptr %19, i32 0, i32 0
  %21 = load ptr, ptr %20, align 8
  %22 = getelementptr inbounds nuw %struct.CommandBufferCommonHeader, ptr %21, i32 0, i32 0
  %23 = load ptr, ptr %22, align 8
  %24 = getelementptr inbounds nuw %struct.SDL_GPUDevice, ptr %23, i32 0, i32 86
  %25 = load i8, ptr %24, align 4, !range !5, !noundef !6
  %26 = trunc i8 %25 to i1
  br i1 %26, label %27, label %74

27:                                               ; preds = %18
  %28 = load ptr, ptr %6, align 8
  %29 = getelementptr inbounds nuw %struct.RenderPass, ptr %28, i32 0, i32 1
  %30 = load i8, ptr %29, align 8, !range !5, !noundef !6
  %31 = trunc i8 %30 to i1
  br i1 %31, label %49, label %32

32:                                               ; preds = %27
  br label %33

33:                                               ; preds = %32
  br label %34

34:                                               ; preds = %33, %45
  call void @llvm.lifetime.start.p0(i64 4, ptr %11) #6
  %35 = call i32 @SDL_ReportAssertion_REAL(ptr noundef @SDL_DrawGPUPrimitives_REAL.sdl_assert_data, ptr noundef @__func__.SDL_DrawGPUPrimitives_REAL, ptr noundef @.str.8, i32 noundef 2056)
  store i32 %35, ptr %11, align 4
  %36 = load i32, ptr %11, align 4
  %37 = icmp eq i32 %36, 0
  br i1 %37, label %38, label %39

38:                                               ; preds = %34
  store i32 4, ptr %12, align 4
  br label %45

39:                                               ; preds = %34
  %40 = load i32, ptr %11, align 4
  %41 = icmp eq i32 %40, 1
  br i1 %41, label %42, label %43

42:                                               ; preds = %39
  call void @llvm.debugtrap()
  br label %43

43:                                               ; preds = %42, %39
  br label %44

44:                                               ; preds = %43
  store i32 5, ptr %12, align 4
  br label %45

45:                                               ; preds = %44, %38
  call void @llvm.lifetime.end.p0(i64 4, ptr %11) #6
  %46 = load i32, ptr %12, align 4
  switch i32 %46, label %90 [
    i32 4, label %34
    i32 5, label %47
  ]

47:                                               ; preds = %45
  br label %48

48:                                               ; preds = %47
  br label %89

49:                                               ; preds = %27
  %50 = load ptr, ptr %6, align 8
  %51 = getelementptr inbounds nuw %struct.RenderPass, ptr %50, i32 0, i32 0
  %52 = load ptr, ptr %51, align 8
  %53 = getelementptr inbounds nuw %struct.CommandBufferCommonHeader, ptr %52, i32 0, i32 2
  %54 = load i8, ptr %53, align 8, !range !5, !noundef !6
  %55 = trunc i8 %54 to i1
  br i1 %55, label %73, label %56

56:                                               ; preds = %49
  br label %57

57:                                               ; preds = %56
  br label %58

58:                                               ; preds = %57, %69
  call void @llvm.lifetime.start.p0(i64 4, ptr %13) #6
  %59 = call i32 @SDL_ReportAssertion_REAL(ptr noundef @SDL_DrawGPUPrimitives_REAL.sdl_assert_data.255, ptr noundef @__func__.SDL_DrawGPUPrimitives_REAL, ptr noundef @.str.8, i32 noundef 2057)
  store i32 %59, ptr %13, align 4
  %60 = load i32, ptr %13, align 4
  %61 = icmp eq i32 %60, 0
  br i1 %61, label %62, label %63

62:                                               ; preds = %58
  store i32 8, ptr %12, align 4
  br label %69

63:                                               ; preds = %58
  %64 = load i32, ptr %13, align 4
  %65 = icmp eq i32 %64, 1
  br i1 %65, label %66, label %67

66:                                               ; preds = %63
  call void @llvm.debugtrap()
  br label %67

67:                                               ; preds = %66, %63
  br label %68

68:                                               ; preds = %67
  store i32 9, ptr %12, align 4
  br label %69

69:                                               ; preds = %68, %62
  call void @llvm.lifetime.end.p0(i64 4, ptr %13) #6
  %70 = load i32, ptr %12, align 4
  switch i32 %70, label %90 [
    i32 8, label %58
    i32 9, label %71
  ]

71:                                               ; preds = %69
  br label %72

72:                                               ; preds = %71
  br label %89

73:                                               ; preds = %49
  br label %74

74:                                               ; preds = %73, %18
  %75 = load ptr, ptr %6, align 8
  %76 = getelementptr inbounds nuw %struct.RenderPass, ptr %75, i32 0, i32 0
  %77 = load ptr, ptr %76, align 8
  %78 = getelementptr inbounds nuw %struct.CommandBufferCommonHeader, ptr %77, i32 0, i32 0
  %79 = load ptr, ptr %78, align 8
  %80 = getelementptr inbounds nuw %struct.SDL_GPUDevice, ptr %79, i32 0, i32 38
  %81 = load ptr, ptr %80, align 8
  %82 = load ptr, ptr %6, align 8
  %83 = getelementptr inbounds nuw %struct.RenderPass, ptr %82, i32 0, i32 0
  %84 = load ptr, ptr %83, align 8
  %85 = load i32, ptr %7, align 4
  %86 = load i32, ptr %8, align 4
  %87 = load i32, ptr %9, align 4
  %88 = load i32, ptr %10, align 4
  call void %81(ptr noundef %84, i32 noundef %85, i32 noundef %86, i32 noundef %87, i32 noundef %88)
  br label %89

89:                                               ; preds = %74, %72, %48, %16
  ret void

90:                                               ; preds = %69, %45
  unreachable
}