; Function Attrs: nounwind uwtable
define hidden void @SDL_DrawGPUPrimitives_REAL(ptr noundef readonly captures(address_is_null) %0, i32 noundef %1, i32 noundef %2, i32 noundef %3, i32 noundef %4) local_unnamed_addr #0 {
  %6 = icmp eq ptr %0, null
  br i1 %6, label %7, label %9

7:                                                ; preds = %5
  %8 = tail call zeroext i1 (ptr, ...) @SDL_SetError_REAL(ptr noundef nonnull @.str.4, ptr noundef nonnull @.str.225) #7
  br label %.thread

9:                                                ; preds = %5
  %10 = load ptr, ptr %0, align 8
  %11 = load ptr, ptr %10, align 8
  %12 = getelementptr inbounds nuw i8, ptr %11, i64 684
  %13 = load i8, ptr %12, align 4, !range !5, !noundef !6
  %14 = trunc nuw i8 %13 to i1
  br i1 %14, label %15, label %27

15:                                               ; preds = %9
  %16 = getelementptr inbounds nuw i8, ptr %0, i64 8
  %17 = load i8, ptr %16, align 8, !range !5, !noundef !6
  %18 = trunc nuw i8 %17 to i1
  br i1 %18, label %21, label %.preheader27

.preheader27:                                     ; preds = %15, %.preheader27
  %19 = tail call i32 @SDL_ReportAssertion_REAL(ptr noundef nonnull @SDL_DrawGPUPrimitives_REAL.sdl_assert_data, ptr noundef nonnull @__func__.SDL_DrawGPUPrimitives_REAL, ptr noundef nonnull @.str.8, i32 noundef 2056) #7
  switch i32 %19, label %.thread [
    i32 0, label %.preheader27
    i32 1, label %20
  ]

20:                                               ; preds = %.preheader27
  tail call void @llvm.debugtrap()
  br label %.thread

21:                                               ; preds = %15
  %22 = getelementptr inbounds nuw i8, ptr %10, i64 72
  %23 = load i8, ptr %22, align 8, !range !5, !noundef !6
  %24 = trunc nuw i8 %23 to i1
  br i1 %24, label %27, label %.preheader

.preheader:                                       ; preds = %21, %.preheader
  %25 = tail call i32 @SDL_ReportAssertion_REAL(ptr noundef nonnull @SDL_DrawGPUPrimitives_REAL.sdl_assert_data.255, ptr noundef nonnull @__func__.SDL_DrawGPUPrimitives_REAL, ptr noundef nonnull @.str.8, i32 noundef 2057) #7
  switch i32 %25, label %.thread [
    i32 0, label %.preheader
    i32 1, label %26
  ]

26:                                               ; preds = %.preheader
  tail call void @llvm.debugtrap()
  br label %.thread

27:                                               ; preds = %21, %9
  %28 = getelementptr inbounds nuw i8, ptr %11, i64 304
  %29 = load ptr, ptr %28, align 8
  tail call void %29(ptr noundef nonnull %10, i32 noundef %1, i32 noundef %2, i32 noundef %3, i32 noundef %4) #7
  br label %.thread

.thread:                                          ; preds = %.preheader27, %.preheader, %26, %20, %27, %7
  ret void
}